target datalayout = "e-m:e-p270:32:32-p271:32:32-p272:64:64-i64:64-i128:128-f80:128-n8:16:32:64-S128"
target triple = "x86_64-pc-linux-gnu"

%struct.sline = type { ptr, i32, %struct.plost, ptr, i32, i64, ptr }
%struct.plost = type { ptr, ptr, i32 }
%struct.combine_diff_state = type { i32, i32, i32, i32, i32, i64, i32, i32, ptr, ptr }

; Function Attrs: nounwind uwtable
define internal void @consume_hunk(ptr noundef %0, i64 noundef %1, i64 noundef %2, i64 noundef %3, i64 noundef %4, ptr noundef %5, i64 noundef %6) #0 {
  %8 = alloca ptr, align 8
  %9 = alloca i64, align 8
  %10 = alloca i64, align 8
  %11 = alloca i64, align 8
  %12 = alloca i64, align 8
  %13 = alloca ptr, align 8
  %14 = alloca i64, align 8
  %15 = alloca ptr, align 8
  store ptr %0, ptr %8, align 8, !tbaa !158
  store i64 %1, ptr %9, align 8, !tbaa !84
  store i64 %2, ptr %10, align 8, !tbaa !84
  store i64 %3, ptr %11, align 8, !tbaa !84
  store i64 %4, ptr %12, align 8, !tbaa !84
  store ptr %5, ptr %13, align 8, !tbaa !29
  store i64 %6, ptr %14, align 8, !tbaa !84
  call void @llvm.lifetime.start.p0(i64 8, ptr %15) #9
  %16 = load ptr, ptr %8, align 8, !tbaa !158
  store ptr %16, ptr %15, align 8, !tbaa !263
  %17 = load i64, ptr %9, align 8, !tbaa !84
  %18 = trunc i64 %17 to i32
  %19 = load ptr, ptr %15, align 8, !tbaa !263
  %20 = getelementptr inbounds nuw %struct.combine_diff_state, ptr %19, i32 0, i32 1
  store i32 %18, ptr %20, align 4, !tbaa !265
  %21 = load i64, ptr %10, align 8, !tbaa !84
  %22 = trunc i64 %21 to i32
  %23 = load ptr, ptr %15, align 8, !tbaa !263
  %24 = getelementptr inbounds nuw %struct.combine_diff_state, ptr %23, i32 0, i32 2
  store i32 %22, ptr %24, align 8, !tbaa !266
  %25 = load i64, ptr %11, align 8, !tbaa !84
  %26 = trunc i64 %25 to i32
  %27 = load ptr, ptr %15, align 8, !tbaa !263
  %28 = getelementptr inbounds nuw %struct.combine_diff_state, ptr %27, i32 0, i32 3
  store i32 %26, ptr %28, align 4, !tbaa !267
  %29 = load i64, ptr %12, align 8, !tbaa !84
  %30 = trunc i64 %29 to i32
  %31 = load ptr, ptr %15, align 8, !tbaa !263
  %32 = getelementptr inbounds nuw %struct.combine_diff_state, ptr %31, i32 0, i32 4
  store i32 %30, ptr %32, align 8, !tbaa !268
  %33 = load ptr, ptr %15, align 8, !tbaa !263
  %34 = getelementptr inbounds nuw %struct.combine_diff_state, ptr %33, i32 0, i32 3
  %35 = load i32, ptr %34, align 4, !tbaa !267
  %36 = load ptr, ptr %15, align 8, !tbaa !263
  %37 = getelementptr inbounds nuw %struct.combine_diff_state, ptr %36, i32 0, i32 0
  store i32 %35, ptr %37, align 8, !tbaa !231
  %38 = load ptr, ptr %15, align 8, !tbaa !263
  %39 = getelementptr inbounds nuw %struct.combine_diff_state, ptr %38, i32 0, i32 4
  %40 = load i32, ptr %39, align 8, !tbaa !268
  %41 = icmp eq i32 %40, 0
  br i1 %41, label %42, label %61

42:                                               ; preds = %7
  %43 = load ptr, ptr %15, align 8, !tbaa !263
  %44 = getelementptr inbounds nuw %struct.combine_diff_state, ptr %43, i32 0, i32 8
  %45 = load ptr, ptr %44, align 8, !tbaa !230
  %46 = load ptr, ptr %15, align 8, !tbaa !263
  %47 = getelementptr inbounds nuw %struct.combine_diff_state, ptr %46, i32 0, i32 3
  %48 = load i32, ptr %47, align 4, !tbaa !267
  %49 = sext i32 %48 to i64
  %50 = getelementptr inbounds %struct.sline, ptr %45, i64 %49
  %51 = load ptr, ptr %15, align 8, !tbaa !263
  %52 = getelementptr inbounds nuw %struct.combine_diff_state, ptr %51, i32 0, i32 9
  store ptr %50, ptr %52, align 8, !tbaa !269
  %53 = load ptr, ptr %15, align 8, !tbaa !263
  %54 = getelementptr inbounds nuw %struct.combine_diff_state, ptr %53, i32 0, i32 3
  %55 = load i32, ptr %54, align 4, !tbaa !267
  %56 = icmp ne i32 %55, 0
  br i1 %56, label %60, label %57

57:                                               ; preds = %42
  %58 = load ptr, ptr %15, align 8, !tbaa !263
  %59 = getelementptr inbounds nuw %struct.combine_diff_state, ptr %58, i32 0, i32 3
  store i32 1, ptr %59, align 4, !tbaa !267
  br label %60

60:                                               ; preds = %57, %42
  br label %73

61:                                               ; preds = %7
  %62 = load ptr, ptr %15, align 8, !tbaa !263
  %63 = getelementptr inbounds nuw %struct.combine_diff_state, ptr %62, i32 0, i32 8
  %64 = load ptr, ptr %63, align 8, !tbaa !230
  %65 = load ptr, ptr %15, align 8, !tbaa !263
  %66 = getelementptr inbounds nuw %struct.combine_diff_state, ptr %65, i32 0, i32 3
  %67 = load i32, ptr %66, align 4, !tbaa !267
  %68 = sub nsw i32 %67, 1
  %69 = sext i32 %68 to i64
  %70 = getelementptr inbounds %struct.sline, ptr %64, i64 %69
  %71 = load ptr, ptr %15, align 8, !tbaa !263
  %72 = getelementptr inbounds nuw %struct.combine_diff_state, ptr %71, i32 0, i32 9
  store ptr %70, ptr %72, align 8, !tbaa !269
  br label %73

73:                                               ; preds = %61, %60
  %74 = load ptr, ptr %15, align 8, !tbaa !263
  %75 = getelementptr inbounds nuw %struct.combine_diff_state, ptr %74, i32 0, i32 8
  %76 = load ptr, ptr %75, align 8, !tbaa !230
  %77 = load ptr, ptr %15, align 8, !tbaa !263
  %78 = getelementptr inbounds nuw %struct.combine_diff_state, ptr %77, i32 0, i32 3
  %79 = load i32, ptr %78, align 4, !tbaa !267
  %80 = sub nsw i32 %79, 1
  %81 = sext i32 %80 to i64
  %82 = getelementptr inbounds %struct.sline, ptr %76, i64 %81
  %83 = getelementptr inbounds nuw %struct.sline, ptr %82, i32 0, i32 6
  %84 = load ptr, ptr %83, align 8, !tbaa !136
  %85 = icmp ne ptr %84, null
  br i1 %85, label %102, label %86

86:                                               ; preds = %73
  %87 = load ptr, ptr %15, align 8, !tbaa !263
  %88 = getelementptr inbounds nuw %struct.combine_diff_state, ptr %87, i32 0, i32 6
  %89 = load i32, ptr %88, align 8, !tbaa !232
  %90 = sext i32 %89 to i64
  %91 = call ptr @xcalloc(i64 noundef %90, i64 noundef 8)
  %92 = load ptr, ptr %15, align 8, !tbaa !263
  %93 = getelementptr inbounds nuw %struct.combine_diff_state, ptr %92, i32 0, i32 8
  %94 = load ptr, ptr %93, align 8, !tbaa !230
  %95 = load ptr, ptr %15, align 8, !tbaa !263
  %96 = getelementptr inbounds nuw %struct.combine_diff_state, ptr %95, i32 0, i32 3
  %97 = load i32, ptr %96, align 4, !tbaa !267
  %98 = sub nsw i32 %97, 1
  %99 = sext i32 %98 to i64
  %100 = getelementptr inbounds %struct.sline, ptr %94, i64 %99
  %101 = getelementptr inbounds nuw %struct.sline, ptr %100, i32 0, i32 6
  store ptr %91, ptr %101, align 8, !tbaa !136
  br label %102

102:                                              ; preds = %86, %73
  %103 = load ptr, ptr %15, align 8, !tbaa !263
  %104 = getelementptr inbounds nuw %struct.combine_diff_state, ptr %103, i32 0, i32 1
  %105 = load i32, ptr %104, align 4, !tbaa !265
  %106 = sext i32 %105 to i64
  %107 = load ptr, ptr %15, align 8, !tbaa !263
  %108 = getelementptr inbounds nuw %struct.combine_diff_state, ptr %107, i32 0, i32 8
  %109 = load ptr, ptr %108, align 8, !tbaa !230
  %110 = load ptr, ptr %15, align 8, !tbaa !263
  %111 = getelementptr inbounds nuw %struct.combine_diff_state, ptr %110, i32 0, i32 3
  %112 = load i32, ptr %111, align 4, !tbaa !267
  %113 = sub nsw i32 %112, 1
  %114 = sext i32 %113 to i64
  %115 = getelementptr inbounds %struct.sline, ptr %109, i64 %114
  %116 = getelementptr inbounds nuw %struct.sline, ptr %115, i32 0, i32 6
  %117 = load ptr, ptr %116, align 8, !tbaa !136
  %118 = load ptr, ptr %15, align 8, !tbaa !263
  %119 = getelementptr inbounds nuw %struct.combine_diff_state, ptr %118, i32 0, i32 7
  %120 = load i32, ptr %119, align 4, !tbaa !233
  %121 = sext i32 %120 to i64
  %122 = getelementptr inbounds i64, ptr %117, i64 %121
  store i64 %106, ptr %122, align 8, !tbaa !84
  call void @llvm.lifetime.end.p0(i64 8, ptr %15) #9
  ret void
}