; Function Attrs: nounwind uwtable
define internal void @consume_hunk(ptr noundef captures(none) initializes((0, 20), (48, 56)) %0, i64 noundef %1, i64 noundef %2, i64 noundef %3, i64 noundef %4, ptr readnone captures(none) %5, i64 %6) #0 {
  %8 = trunc i64 %1 to i32
  %9 = getelementptr inbounds nuw i8, ptr %0, i64 4
  store i32 %8, ptr %9, align 4, !tbaa !271
  %10 = trunc i64 %2 to i32
  %11 = getelementptr inbounds nuw i8, ptr %0, i64 8
  store i32 %10, ptr %11, align 8, !tbaa !272
  %12 = trunc i64 %3 to i32
  %13 = getelementptr inbounds nuw i8, ptr %0, i64 12
  store i32 %12, ptr %13, align 4, !tbaa !273
  %14 = trunc i64 %4 to i32
  %15 = getelementptr inbounds nuw i8, ptr %0, i64 16
  store i32 %14, ptr %15, align 8, !tbaa !274
  store i32 %12, ptr %0, align 8, !tbaa !139
  %16 = icmp eq i32 %14, 0
  %17 = getelementptr inbounds nuw i8, ptr %0, i64 40
  %18 = load ptr, ptr %17, align 8, !tbaa !138
  %sext29 = shl i64 %3, 32
  %19 = ashr exact i64 %sext29, 32
  %20 = getelementptr %struct.sline, ptr %18, i64 %19
  br i1 %16, label %21, label %24

21:                                               ; preds = %7
  %22 = getelementptr inbounds nuw i8, ptr %0, i64 48
  store ptr %20, ptr %22, align 8, !tbaa !275
  %.not = icmp eq i32 %12, 0
  br i1 %.not, label %23, label %27

23:                                               ; preds = %21
  store i32 1, ptr %13, align 4, !tbaa !273
  br label %27

24:                                               ; preds = %7
  %25 = getelementptr i8, ptr %20, i64 -72
  %26 = getelementptr inbounds nuw i8, ptr %0, i64 48
  store ptr %25, ptr %26, align 8, !tbaa !275
  br label %27

27:                                               ; preds = %21, %23, %24
  %28 = phi i64 [ %3, %21 ], [ 1, %23 ], [ %3, %24 ]
  %sext30 = shl i64 %28, 32
  %29 = ashr exact i64 %sext30, 32
  %30 = getelementptr %struct.sline, ptr %18, i64 %29
  %31 = getelementptr i8, ptr %30, i64 -8
  %32 = load ptr, ptr %31, align 8, !tbaa !124
  %.not28 = icmp eq ptr %32, null
  br i1 %.not28, label %33, label %44

33:                                               ; preds = %27
  %34 = getelementptr inbounds nuw i8, ptr %0, i64 40
  %35 = getelementptr inbounds nuw i8, ptr %0, i64 32
  %36 = load i32, ptr %35, align 8, !tbaa !140
  %37 = sext i32 %36 to i64
  %38 = tail call ptr @xcalloc(i64 noundef %37, i64 noundef 8) #15
  %39 = load ptr, ptr %34, align 8, !tbaa !138
  %40 = load i32, ptr %13, align 4, !tbaa !273
  %41 = sext i32 %40 to i64
  %42 = getelementptr %struct.sline, ptr %39, i64 %41
  %43 = getelementptr i8, ptr %42, i64 -8
  store ptr %38, ptr %43, align 8, !tbaa !124
  %.pre = load i32, ptr %9, align 4, !tbaa !271
  br label %44

44:                                               ; preds = %33, %27
  %45 = phi ptr [ %38, %33 ], [ %32, %27 ]
  %46 = phi i32 [ %.pre, %33 ], [ %8, %27 ]
  %47 = sext i32 %46 to i64
  %48 = getelementptr inbounds nuw i8, ptr %0, i64 36
  %49 = load i32, ptr %48, align 4, !tbaa !141
  %50 = sext i32 %49 to i64
  %51 = getelementptr inbounds i64, ptr %45, i64 %50
  store i64 %47, ptr %51, align 8, !tbaa !76
  ret void
}